target datalayout = "e-m:e-p270:32:32-p271:32:32-p272:64:64-i64:64-i128:128-f80:128-n8:16:32:64-S128"
target triple = "x86_64-pc-linux-gnu"

%"class.ozz::io::Stream" = type { ptr }
%"class.ozz::io::MemoryStream" = type { %"class.ozz::io::Stream", ptr, i64, i32, i32 }

; Function Attrs: mustprogress nounwind uwtable
define linkonce_odr dso_local void @_ZN3ozz2io6StreamD2Ev(ptr noundef nonnull align 8 dereferenceable(8) %0) unnamed_addr #3 comdat align 2 {
  %2 = alloca ptr, align 8
  store ptr %0, ptr %2, align 8, !tbaa !18
  ret void
}

; Function Attrs: mustprogress nounwind uwtable
define dso_local void @_ZN3ozz2io12MemoryStreamD2Ev(ptr noundef nonnull align 8 dereferenceable(32) %0) unnamed_addr #3 align 2 personality ptr @__gxx_personality_v0 {
  %2 = alloca ptr, align 8
  store ptr %0, ptr %2, align 8, !tbaa !27
  %3 = load ptr, ptr %2, align 8
  store ptr getelementptr inbounds inrange(-16, 64) ({ [10 x ptr] }, ptr @_ZTVN3ozz2io12MemoryStreamE, i32 0, i32 0, i32 2), ptr %3, align 8, !tbaa !13
  %4 = invoke noundef ptr @_ZN3ozz6memory17default_allocatorEv()
          to label %5 unwind label %13

5:                                                ; preds = %1
  %6 = getelementptr inbounds nuw %"class.ozz::io::MemoryStream", ptr %3, i32 0, i32 1
  %7 = load ptr, ptr %6, align 8, !tbaa !29
  %8 = load ptr, ptr %4, align 8, !tbaa !13
  %9 = getelementptr inbounds ptr, ptr %8, i64 3
  %10 = load ptr, ptr %9, align 8
  invoke void %10(ptr noundef nonnull align 8 dereferenceable(8) %4, ptr noundef %7)
          to label %11 unwind label %13

11:                                               ; preds = %5
  %12 = getelementptr inbounds nuw %"class.ozz::io::MemoryStream", ptr %3, i32 0, i32 1
  store ptr null, ptr %12, align 8, !tbaa !29
  call void @_ZN3ozz2io6StreamD2Ev(ptr noundef nonnull align 8 dereferenceable(8) %3) #10
  ret void

13:                                               ; preds = %5, %1
  %14 = landingpad { ptr, i32 }
          catch ptr null
  %15 = extractvalue { ptr, i32 } %14, 0
  call void @__clang_call_terminate(ptr %15) #11
  unreachable
}